target datalayout = "e-m:e-p270:32:32-p271:32:32-p272:64:64-i64:64-i128:128-f80:128-n8:16:32:64-S128"
target triple = "x86_64-pc-linux-gnu"

%struct.AVRational = type { i32, i32 }
%struct.MOVContext = type { ptr, ptr, i32, i64, i32, i32, i32, i32, i32, i32, ptr, i32, ptr, ptr, i32, %struct.MOVFragment, ptr, i32, i32, i32, ptr, i32, i32, i32, i32, i32, i32, i32, i64, i32, i32, ptr, i32, i32, i32, i32, i32, %struct.MOVFragmentIndex, i32, i32, [20 x i8], [20 x i8], ptr, i32, ptr, i32, ptr, i32, ptr, i32, ptr, ptr, i32, i32, [3 x [3 x i32]], i32, i32, i32, i32, i32, ptr, i32, ptr, i32, i32, i64, i32 }
%struct.MOVFragment = type { i32, i32, i64, i64, i64, i32, i32, i32, i32 }
%struct.MOVFragmentIndex = type { i32, i32, i32, i32, ptr }
%struct.AVFormatContext = type { ptr, ptr, ptr, ptr, ptr, i32, i32, ptr, i32, ptr, i32, ptr, ptr, i64, i64, i64, i32, i32, i32, i64, i64, ptr, i32, i32, ptr, i32, i32, i32, i32, ptr, i64, i32, i32, %struct.AVIOInterruptCB, i32, i32, i32, i32, i64, i32, i32, i32, i32, i32, i32, i32, i32, i32, i32, i32, i32, i64, i32, i32, i32, i32, i32, ptr, ptr, ptr, ptr, i32, ptr, ptr, ptr, ptr, i32, ptr, ptr, i64, ptr, ptr, ptr, i64 }
%struct.AVIOInterruptCB = type { ptr, ptr }
%struct.AVStream = type { ptr, i32, i32, ptr, ptr, %struct.AVRational, i64, i64, i64, i32, i32, %struct.AVRational, ptr, %struct.AVRational, %struct.AVPacket, i32, %struct.AVRational, i32 }
%struct.AVPacket = type { ptr, i64, i64, ptr, i32, i32, i32, ptr, i32, i64, i64, ptr, ptr, %struct.AVRational }
%struct.MOVStreamContext = type { ptr, i32, i32, i32, i32, i32, i32, ptr, i32, i32, ptr, i32, i32, ptr, i32, ptr, i32, i32, ptr, i32, ptr, i32, i32, i32, ptr, ptr, i32, i32, i32, i32, i32, i32, ptr, i32, i32, ptr, i32, i64, i64, i32, i64, ptr, ptr, i32, i32, i32, i32, i16, i32, ptr, i32, i32, i32, i32, i32, i32, i32, i32, i32, [256 x i32], i32, i64, i32, i8, i64, i32, i32, ptr, i32, ptr, ptr, i32, ptr, i32, ptr, i32, i32, i32, i64, ptr, ptr, i32, i32, i32, ptr, ptr, i64, ptr, i64, ptr, i64, ptr, i64, ptr, i64, i32, i32, %struct.anon, ptr, i32 }
%struct.anon = type { ptr, ptr, i32, ptr, ptr }
%struct.MOVFragmentIndexItem = type { i64, i32, i32, i32, ptr }
%struct.MOVFragmentStreamInfo = type { i32, i64, i64, i64, i64, i32, i32, ptr, i32 }

; Function Attrs: nounwind uwtable
define internal ptr @get_current_frag_stream_info(ptr noundef %0) #0 {
  %2 = alloca ptr, align 8
  %3 = alloca ptr, align 8
  %4 = alloca ptr, align 8
  %5 = alloca i32, align 4
  store ptr %0, ptr %3, align 8, !tbaa !678
  call void @llvm.lifetime.start.p0(i64 8, ptr %4) #14
  %6 = load ptr, ptr %3, align 8, !tbaa !678
  %7 = getelementptr inbounds nuw %struct.MOVFragmentIndex, ptr %6, i32 0, i32 2
  %8 = load i32, ptr %7, align 8, !tbaa !696
  %9 = icmp slt i32 %8, 0
  br i1 %9, label %18, label %10

10:                                               ; preds = %1
  %11 = load ptr, ptr %3, align 8, !tbaa !678
  %12 = getelementptr inbounds nuw %struct.MOVFragmentIndex, ptr %11, i32 0, i32 2
  %13 = load i32, ptr %12, align 8, !tbaa !696
  %14 = load ptr, ptr %3, align 8, !tbaa !678
  %15 = getelementptr inbounds nuw %struct.MOVFragmentIndex, ptr %14, i32 0, i32 3
  %16 = load i32, ptr %15, align 4, !tbaa !680
  %17 = icmp sge i32 %13, %16
  br i1 %17, label %18, label %19

18:                                               ; preds = %10, %1
  store ptr null, ptr %2, align 8
  store i32 1, ptr %5, align 4
  br label %50

19:                                               ; preds = %10
  %20 = load ptr, ptr %3, align 8, !tbaa !678
  %21 = getelementptr inbounds nuw %struct.MOVFragmentIndex, ptr %20, i32 0, i32 4
  %22 = load ptr, ptr %21, align 8, !tbaa !681
  %23 = load ptr, ptr %3, align 8, !tbaa !678
  %24 = getelementptr inbounds nuw %struct.MOVFragmentIndex, ptr %23, i32 0, i32 2
  %25 = load i32, ptr %24, align 8, !tbaa !696
  %26 = sext i32 %25 to i64
  %27 = getelementptr inbounds %struct.MOVFragmentIndexItem, ptr %22, i64 %26
  store ptr %27, ptr %4, align 8, !tbaa !366
  %28 = load ptr, ptr %4, align 8, !tbaa !366
  %29 = getelementptr inbounds nuw %struct.MOVFragmentIndexItem, ptr %28, i32 0, i32 2
  %30 = load i32, ptr %29, align 4, !tbaa !673
  %31 = icmp sge i32 %30, 0
  br i1 %31, label %32, label %49

32:                                               ; preds = %19
  %33 = load ptr, ptr %4, align 8, !tbaa !366
  %34 = getelementptr inbounds nuw %struct.MOVFragmentIndexItem, ptr %33, i32 0, i32 2
  %35 = load i32, ptr %34, align 4, !tbaa !673
  %36 = load ptr, ptr %4, align 8, !tbaa !366
  %37 = getelementptr inbounds nuw %struct.MOVFragmentIndexItem, ptr %36, i32 0, i32 3
  %38 = load i32, ptr %37, align 8, !tbaa !252
  %39 = icmp slt i32 %35, %38
  br i1 %39, label %40, label %49

40:                                               ; preds = %32
  %41 = load ptr, ptr %4, align 8, !tbaa !366
  %42 = getelementptr inbounds nuw %struct.MOVFragmentIndexItem, ptr %41, i32 0, i32 4
  %43 = load ptr, ptr %42, align 8, !tbaa !250
  %44 = load ptr, ptr %4, align 8, !tbaa !366
  %45 = getelementptr inbounds nuw %struct.MOVFragmentIndexItem, ptr %44, i32 0, i32 2
  %46 = load i32, ptr %45, align 4, !tbaa !673
  %47 = sext i32 %46 to i64
  %48 = getelementptr inbounds %struct.MOVFragmentStreamInfo, ptr %43, i64 %47
  store ptr %48, ptr %2, align 8
  store i32 1, ptr %5, align 4
  br label %50

49:                                               ; preds = %32, %19
  store ptr null, ptr %2, align 8
  store i32 1, ptr %5, align 4
  br label %50

50:                                               ; preds = %49, %40, %18
  call void @llvm.lifetime.end.p0(i64 8, ptr %4) #14
  %51 = load ptr, ptr %2, align 8
  ret ptr %51
}

; Function Attrs: nounwind uwtable
define internal i32 @get_current_encryption_info(ptr noundef %0, ptr noundef %1, ptr noundef %2) #0 {
  %4 = alloca i32, align 4
  %5 = alloca ptr, align 8
  %6 = alloca ptr, align 8
  %7 = alloca ptr, align 8
  %8 = alloca ptr, align 8
  %9 = alloca ptr, align 8
  %10 = alloca i32, align 4
  %11 = alloca i32, align 4
  store ptr %0, ptr %5, align 8, !tbaa !4
  store ptr %1, ptr %6, align 8, !tbaa !758
  store ptr %2, ptr %7, align 8, !tbaa !760
  call void @llvm.lifetime.start.p0(i64 8, ptr %8) #14
  call void @llvm.lifetime.start.p0(i64 8, ptr %9) #14
  call void @llvm.lifetime.start.p0(i64 4, ptr %10) #14
  %12 = load ptr, ptr %5, align 8, !tbaa !4
  %13 = getelementptr inbounds nuw %struct.MOVContext, ptr %12, i32 0, i32 37
  %14 = call ptr @get_current_frag_stream_info(ptr noundef %13)
  store ptr %14, ptr %8, align 8, !tbaa !251
  %15 = load ptr, ptr %8, align 8, !tbaa !251
  %16 = icmp ne ptr %15, null
  br i1 %16, label %17, label %102

17:                                               ; preds = %3
  store i32 0, ptr %10, align 4, !tbaa !11
  br label %18

18:                                               ; preds = %58, %17
  %19 = load i32, ptr %10, align 4, !tbaa !11
  %20 = load ptr, ptr %5, align 8, !tbaa !4
  %21 = getelementptr inbounds nuw %struct.MOVContext, ptr %20, i32 0, i32 1
  %22 = load ptr, ptr %21, align 8, !tbaa !13
  %23 = getelementptr inbounds nuw %struct.AVFormatContext, ptr %22, i32 0, i32 6
  %24 = load i32, ptr %23, align 4, !tbaa !30
  %25 = icmp ult i32 %19, %24
  br i1 %25, label %26, label %61

26:                                               ; preds = %18
  %27 = load ptr, ptr %5, align 8, !tbaa !4
  %28 = getelementptr inbounds nuw %struct.MOVContext, ptr %27, i32 0, i32 1
  %29 = load ptr, ptr %28, align 8, !tbaa !13
  %30 = getelementptr inbounds nuw %struct.AVFormatContext, ptr %29, i32 0, i32 7
  %31 = load ptr, ptr %30, align 8, !tbaa !41
  %32 = load i32, ptr %10, align 4, !tbaa !11
  %33 = sext i32 %32 to i64
  %34 = getelementptr inbounds ptr, ptr %31, i64 %33
  %35 = load ptr, ptr %34, align 8, !tbaa !42
  %36 = getelementptr inbounds nuw %struct.AVStream, ptr %35, i32 0, i32 4
  %37 = load ptr, ptr %36, align 8, !tbaa !44
  %38 = load ptr, ptr %7, align 8, !tbaa !760
  store ptr %37, ptr %38, align 8, !tbaa !51
  %39 = load ptr, ptr %7, align 8, !tbaa !760
  %40 = load ptr, ptr %39, align 8, !tbaa !51
  %41 = getelementptr inbounds nuw %struct.MOVStreamContext, ptr %40, i32 0, i32 3
  %42 = load i32, ptr %41, align 8, !tbaa !173
  %43 = load ptr, ptr %8, align 8, !tbaa !251
  %44 = getelementptr inbounds nuw %struct.MOVFragmentStreamInfo, ptr %43, i32 0, i32 0
  %45 = load i32, ptr %44, align 8, !tbaa !670
  %46 = icmp eq i32 %42, %45
  br i1 %46, label %47, label %57

47:                                               ; preds = %26
  %48 = load ptr, ptr %5, align 8, !tbaa !4
  %49 = getelementptr inbounds nuw %struct.MOVContext, ptr %48, i32 0, i32 1
  %50 = load ptr, ptr %49, align 8, !tbaa !13
  %51 = getelementptr inbounds nuw %struct.AVFormatContext, ptr %50, i32 0, i32 7
  %52 = load ptr, ptr %51, align 8, !tbaa !41
  %53 = load i32, ptr %10, align 4, !tbaa !11
  %54 = sext i32 %53 to i64
  %55 = getelementptr inbounds ptr, ptr %52, i64 %54
  %56 = load ptr, ptr %55, align 8, !tbaa !42
  store ptr %56, ptr %9, align 8, !tbaa !42
  br label %61

57:                                               ; preds = %26
  br label %58

58:                                               ; preds = %57
  %59 = load i32, ptr %10, align 4, !tbaa !11
  %60 = add nsw i32 %59, 1
  store i32 %60, ptr %10, align 4, !tbaa !11
  br label %18, !llvm.loop !762

61:                                               ; preds = %47, %18
  %62 = load i32, ptr %10, align 4, !tbaa !11
  %63 = load ptr, ptr %5, align 8, !tbaa !4
  %64 = getelementptr inbounds nuw %struct.MOVContext, ptr %63, i32 0, i32 1
  %65 = load ptr, ptr %64, align 8, !tbaa !13
  %66 = getelementptr inbounds nuw %struct.AVFormatContext, ptr %65, i32 0, i32 6
  %67 = load i32, ptr %66, align 4, !tbaa !30
  %68 = icmp eq i32 %62, %67
  br i1 %68, label %69, label %70

69:                                               ; preds = %61
  store i32 0, ptr %4, align 4
  store i32 1, ptr %11, align 4
  br label %164

70:                                               ; preds = %61
  %71 = load ptr, ptr %9, align 8, !tbaa !42
  %72 = getelementptr inbounds nuw %struct.AVStream, ptr %71, i32 0, i32 4
  %73 = load ptr, ptr %72, align 8, !tbaa !44
  %74 = load ptr, ptr %7, align 8, !tbaa !760
  store ptr %73, ptr %74, align 8, !tbaa !51
  %75 = load ptr, ptr %8, align 8, !tbaa !251
  %76 = getelementptr inbounds nuw %struct.MOVFragmentStreamInfo, ptr %75, i32 0, i32 7
  %77 = load ptr, ptr %76, align 8, !tbaa !671
  %78 = icmp ne ptr %77, null
  br i1 %78, label %97, label %79

79:                                               ; preds = %70
  %80 = load ptr, ptr %7, align 8, !tbaa !760
  %81 = load ptr, ptr %80, align 8, !tbaa !51
  %82 = getelementptr inbounds nuw %struct.MOVStreamContext, ptr %81, i32 0, i32 97
  %83 = getelementptr inbounds nuw %struct.anon, ptr %82, i32 0, i32 3
  %84 = load ptr, ptr %83, align 8, !tbaa !495
  %85 = icmp ne ptr %84, null
  br i1 %85, label %87, label %86

86:                                               ; preds = %79
  store i32 0, ptr %4, align 4
  store i32 1, ptr %11, align 4
  br label %164

87:                                               ; preds = %79
  %88 = call noalias ptr @av_mallocz(i64 noundef 56)
  %89 = load ptr, ptr %8, align 8, !tbaa !251
  %90 = getelementptr inbounds nuw %struct.MOVFragmentStreamInfo, ptr %89, i32 0, i32 7
  store ptr %88, ptr %90, align 8, !tbaa !671
  %91 = load ptr, ptr %8, align 8, !tbaa !251
  %92 = getelementptr inbounds nuw %struct.MOVFragmentStreamInfo, ptr %91, i32 0, i32 7
  %93 = load ptr, ptr %92, align 8, !tbaa !671
  %94 = icmp ne ptr %93, null
  br i1 %94, label %96, label %95

95:                                               ; preds = %87
  store i32 -12, ptr %4, align 4
  store i32 1, ptr %11, align 4
  br label %164

96:                                               ; preds = %87
  br label %97

97:                                               ; preds = %96, %70
  %98 = load ptr, ptr %8, align 8, !tbaa !251
  %99 = getelementptr inbounds nuw %struct.MOVFragmentStreamInfo, ptr %98, i32 0, i32 7
  %100 = load ptr, ptr %99, align 8, !tbaa !671
  %101 = load ptr, ptr %6, align 8, !tbaa !758
  store ptr %100, ptr %101, align 8, !tbaa !485
  store i32 1, ptr %4, align 4
  store i32 1, ptr %11, align 4
  br label %164

102:                                              ; preds = %3
  %103 = load ptr, ptr %5, align 8, !tbaa !4
  %104 = getelementptr inbounds nuw %struct.MOVContext, ptr %103, i32 0, i32 1
  %105 = load ptr, ptr %104, align 8, !tbaa !13
  %106 = getelementptr inbounds nuw %struct.AVFormatContext, ptr %105, i32 0, i32 6
  %107 = load i32, ptr %106, align 4, !tbaa !30
  %108 = icmp ult i32 %107, 1
  br i1 %108, label %109, label %110

109:                                              ; preds = %102
  store i32 0, ptr %4, align 4
  store i32 1, ptr %11, align 4
  br label %164

110:                                              ; preds = %102
  %111 = load ptr, ptr %5, align 8, !tbaa !4
  %112 = getelementptr inbounds nuw %struct.MOVContext, ptr %111, i32 0, i32 1
  %113 = load ptr, ptr %112, align 8, !tbaa !13
  %114 = getelementptr inbounds nuw %struct.AVFormatContext, ptr %113, i32 0, i32 7
  %115 = load ptr, ptr %114, align 8, !tbaa !41
  %116 = load ptr, ptr %5, align 8, !tbaa !4
  %117 = getelementptr inbounds nuw %struct.MOVContext, ptr %116, i32 0, i32 1
  %118 = load ptr, ptr %117, align 8, !tbaa !13
  %119 = getelementptr inbounds nuw %struct.AVFormatContext, ptr %118, i32 0, i32 6
  %120 = load i32, ptr %119, align 4, !tbaa !30
  %121 = sub i32 %120, 1
  %122 = zext i32 %121 to i64
  %123 = getelementptr inbounds nuw ptr, ptr %115, i64 %122
  %124 = load ptr, ptr %123, align 8, !tbaa !42
  store ptr %124, ptr %9, align 8, !tbaa !42
  %125 = load ptr, ptr %9, align 8, !tbaa !42
  %126 = getelementptr inbounds nuw %struct.AVStream, ptr %125, i32 0, i32 4
  %127 = load ptr, ptr %126, align 8, !tbaa !44
  %128 = load ptr, ptr %7, align 8, !tbaa !760
  store ptr %127, ptr %128, align 8, !tbaa !51
  %129 = load ptr, ptr %7, align 8, !tbaa !760
  %130 = load ptr, ptr %129, align 8, !tbaa !51
  %131 = getelementptr inbounds nuw %struct.MOVStreamContext, ptr %130, i32 0, i32 97
  %132 = getelementptr inbounds nuw %struct.anon, ptr %131, i32 0, i32 4
  %133 = load ptr, ptr %132, align 8, !tbaa !521
  %134 = icmp ne ptr %133, null
  br i1 %134, label %157, label %135

135:                                              ; preds = %110
  %136 = load ptr, ptr %7, align 8, !tbaa !760
  %137 = load ptr, ptr %136, align 8, !tbaa !51
  %138 = getelementptr inbounds nuw %struct.MOVStreamContext, ptr %137, i32 0, i32 97
  %139 = getelementptr inbounds nuw %struct.anon, ptr %138, i32 0, i32 3
  %140 = load ptr, ptr %139, align 8, !tbaa !495
  %141 = icmp ne ptr %140, null
  br i1 %141, label %143, label %142

142:                                              ; preds = %135
  store i32 0, ptr %4, align 4
  store i32 1, ptr %11, align 4
  br label %164

143:                                              ; preds = %135
  %144 = call noalias ptr @av_mallocz(i64 noundef 56)
  %145 = load ptr, ptr %7, align 8, !tbaa !760
  %146 = load ptr, ptr %145, align 8, !tbaa !51
  %147 = getelementptr inbounds nuw %struct.MOVStreamContext, ptr %146, i32 0, i32 97
  %148 = getelementptr inbounds nuw %struct.anon, ptr %147, i32 0, i32 4
  store ptr %144, ptr %148, align 8, !tbaa !521
  %149 = load ptr, ptr %7, align 8, !tbaa !760
  %150 = load ptr, ptr %149, align 8, !tbaa !51
  %151 = getelementptr inbounds nuw %struct.MOVStreamContext, ptr %150, i32 0, i32 97
  %152 = getelementptr inbounds nuw %struct.anon, ptr %151, i32 0, i32 4
  %153 = load ptr, ptr %152, align 8, !tbaa !521
  %154 = icmp ne ptr %153, null
  br i1 %154, label %156, label %155

155:                                              ; preds = %143
  store i32 -12, ptr %4, align 4
  store i32 1, ptr %11, align 4
  br label %164

156:                                              ; preds = %143
  br label %157

157:                                              ; preds = %156, %110
  %158 = load ptr, ptr %7, align 8, !tbaa !760
  %159 = load ptr, ptr %158, align 8, !tbaa !51
  %160 = getelementptr inbounds nuw %struct.MOVStreamContext, ptr %159, i32 0, i32 97
  %161 = getelementptr inbounds nuw %struct.anon, ptr %160, i32 0, i32 4
  %162 = load ptr, ptr %161, align 8, !tbaa !521
  %163 = load ptr, ptr %6, align 8, !tbaa !758
  store ptr %162, ptr %163, align 8, !tbaa !485
  store i32 1, ptr %4, align 4
  store i32 1, ptr %11, align 4
  br label %164

164:                                              ; preds = %157, %155, %142, %109, %97, %95, %86, %69
  call void @llvm.lifetime.end.p0(i64 4, ptr %10) #14
  call void @llvm.lifetime.end.p0(i64 8, ptr %9) #14
  call void @llvm.lifetime.end.p0(i64 8, ptr %8) #14
  %165 = load i32, ptr %4, align 4
  ret i32 %165
}