; Function Attrs: nounwind uwtable
define internal fastcc range(i32 -12, 2) i32 @get_current_encryption_info(ptr noundef readonly captures(none) %0, ptr noundef nonnull writeonly captures(none) %1, ptr noundef nonnull captures(none) %2) unnamed_addr #0 {
  %4 = getelementptr inbounds nuw i8, ptr %0, i64 264
  %5 = load i32, ptr %4, align 8, !tbaa !335
  %6 = icmp slt i32 %5, 0
  br i1 %6, label %get_current_frag_stream_info.exit.thread, label %7

7:                                                ; preds = %3
  %8 = getelementptr inbounds nuw i8, ptr %0, i64 268
  %9 = load i32, ptr %8, align 4, !tbaa !336
  %.not.i = icmp slt i32 %5, %9
  br i1 %.not.i, label %10, label %get_current_frag_stream_info.exit.thread

10:                                               ; preds = %7
  %11 = getelementptr inbounds nuw i8, ptr %0, i64 272
  %12 = load ptr, ptr %11, align 8, !tbaa !337
  %13 = zext nneg i32 %5 to i64
  %14 = getelementptr inbounds nuw %struct.MOVFragmentIndexItem, ptr %12, i64 %13
  %15 = getelementptr inbounds nuw i8, ptr %14, i64 12
  %16 = load i32, ptr %15, align 4, !tbaa !496
  %17 = icmp sgt i32 %16, -1
  br i1 %17, label %18, label %get_current_frag_stream_info.exit.thread

18:                                               ; preds = %10
  %19 = getelementptr inbounds nuw i8, ptr %14, i64 16
  %20 = load i32, ptr %19, align 8, !tbaa !338
  %21 = icmp slt i32 %16, %20
  br i1 %21, label %get_current_frag_stream_info.exit, label %get_current_frag_stream_info.exit.thread

get_current_frag_stream_info.exit:                ; preds = %18
  %22 = getelementptr inbounds nuw i8, ptr %14, i64 24
  %23 = load ptr, ptr %22, align 8, !tbaa !339
  %24 = zext nneg i32 %16 to i64
  %25 = getelementptr inbounds nuw %struct.MOVFragmentStreamInfo, ptr %23, i64 %24
  %.not = icmp eq ptr %23, null
  br i1 %.not, label %get_current_frag_stream_info.exit.thread, label %.preheader

.preheader:                                       ; preds = %get_current_frag_stream_info.exit
  %26 = getelementptr inbounds nuw i8, ptr %0, i64 8
  %27 = load ptr, ptr %26, align 8, !tbaa !4
  %28 = getelementptr inbounds nuw i8, ptr %27, i64 44
  %29 = load i32, ptr %28, align 4, !tbaa !25
  %.not54 = icmp eq i32 %29, 0
  br i1 %.not54, label %43, label %.lr.ph

.lr.ph:                                           ; preds = %.preheader
  %30 = getelementptr inbounds nuw i8, ptr %27, i64 48
  %31 = load ptr, ptr %30, align 8, !tbaa !37
  %32 = load i32, ptr %25, align 8, !tbaa !341
  %wide.trip.count = zext i32 %29 to i64
  br label %33

33:                                               ; preds = %.lr.ph, %41
  %indvars.iv = phi i64 [ 0, %.lr.ph ], [ %indvars.iv.next, %41 ]
  %34 = getelementptr inbounds nuw ptr, ptr %31, i64 %indvars.iv
  %35 = load ptr, ptr %34, align 8, !tbaa !38
  %36 = getelementptr inbounds nuw i8, ptr %35, i64 24
  %37 = load ptr, ptr %36, align 8, !tbaa !40
  %38 = getelementptr inbounds nuw i8, ptr %37, i64 16
  %39 = load i32, ptr %38, align 8, !tbaa !230
  %40 = icmp eq i32 %39, %32
  br i1 %40, label %._crit_edge, label %41

41:                                               ; preds = %33
  %indvars.iv.next = add nuw nsw i64 %indvars.iv, 1
  %exitcond.not = icmp eq i64 %indvars.iv.next, %wide.trip.count
  br i1 %exitcond.not, label %.thread, label %33, !llvm.loop !757

._crit_edge:                                      ; preds = %33
  %42 = trunc nuw nsw i64 %indvars.iv to i32
  store ptr %37, ptr %2, align 8, !tbaa !570
  br label %43

.thread:                                          ; preds = %41
  store ptr %37, ptr %2, align 8, !tbaa !570
  br label %82

43:                                               ; preds = %._crit_edge, %.preheader
  %.0.lcssa = phi i32 [ %42, %._crit_edge ], [ 0, %.preheader ]
  %.033 = phi ptr [ %35, %._crit_edge ], [ undef, %.preheader ]
  %44 = icmp eq i32 %.0.lcssa, %29
  br i1 %44, label %82, label %45

45:                                               ; preds = %43
  %46 = getelementptr inbounds nuw i8, ptr %.033, i64 24
  %47 = load ptr, ptr %46, align 8, !tbaa !40
  store ptr %47, ptr %2, align 8, !tbaa !570
  %48 = getelementptr inbounds nuw i8, ptr %25, i64 48
  %49 = load ptr, ptr %48, align 8, !tbaa !345
  %.not40 = icmp eq ptr %49, null
  br i1 %.not40, label %50, label %55

50:                                               ; preds = %45
  %51 = getelementptr inbounds nuw i8, ptr %47, i64 1624
  %52 = load ptr, ptr %51, align 8, !tbaa !355
  %.not41 = icmp eq ptr %52, null
  br i1 %.not41, label %82, label %53

53:                                               ; preds = %50
  %54 = tail call noalias ptr @av_mallocz(i64 noundef 56) #16
  store ptr %54, ptr %48, align 8, !tbaa !345
  %.not42 = icmp eq ptr %54, null
  br i1 %.not42, label %82, label %55

55:                                               ; preds = %53, %45
  %56 = phi ptr [ %54, %53 ], [ %49, %45 ]
  store ptr %56, ptr %1, align 8, !tbaa !380
  br label %82

get_current_frag_stream_info.exit.thread:         ; preds = %10, %18, %3, %7, %get_current_frag_stream_info.exit
  %57 = getelementptr inbounds nuw i8, ptr %0, i64 8
  %58 = load ptr, ptr %57, align 8, !tbaa !4
  %59 = getelementptr inbounds nuw i8, ptr %58, i64 44
  %60 = load i32, ptr %59, align 4, !tbaa !25
  %61 = icmp eq i32 %60, 0
  br i1 %61, label %82, label %62

62:                                               ; preds = %get_current_frag_stream_info.exit.thread
  %63 = getelementptr inbounds nuw i8, ptr %58, i64 48
  %64 = load ptr, ptr %63, align 8, !tbaa !37
  %65 = add i32 %60, -1
  %66 = zext i32 %65 to i64
  %67 = getelementptr inbounds nuw ptr, ptr %64, i64 %66
  %68 = load ptr, ptr %67, align 8, !tbaa !38
  %69 = getelementptr inbounds nuw i8, ptr %68, i64 24
  %70 = load ptr, ptr %69, align 8, !tbaa !40
  store ptr %70, ptr %2, align 8, !tbaa !570
  %71 = getelementptr inbounds nuw i8, ptr %70, i64 1632
  %72 = load ptr, ptr %71, align 8, !tbaa !347
  %.not37 = icmp eq ptr %72, null
  br i1 %.not37, label %73, label %80

73:                                               ; preds = %62
  %74 = getelementptr inbounds nuw i8, ptr %70, i64 1624
  %75 = load ptr, ptr %74, align 8, !tbaa !355
  %.not38 = icmp eq ptr %75, null
  br i1 %.not38, label %82, label %76

76:                                               ; preds = %73
  %77 = tail call noalias ptr @av_mallocz(i64 noundef 56) #16
  %78 = load ptr, ptr %2, align 8, !tbaa !570
  %79 = getelementptr inbounds nuw i8, ptr %78, i64 1632
  store ptr %77, ptr %79, align 8, !tbaa !347
  %.not39 = icmp eq ptr %77, null
  br i1 %.not39, label %82, label %80

80:                                               ; preds = %76, %62
  %81 = phi ptr [ %77, %76 ], [ %72, %62 ]
  store ptr %81, ptr %1, align 8, !tbaa !380
  br label %82

82:                                               ; preds = %.thread, %76, %73, %get_current_frag_stream_info.exit.thread, %53, %50, %43, %80, %55
  %.034 = phi i32 [ 1, %55 ], [ 1, %80 ], [ 0, %43 ], [ 0, %50 ], [ -12, %53 ], [ 0, %get_current_frag_stream_info.exit.thread ], [ 0, %73 ], [ -12, %76 ], [ 0, %.thread ]
  ret i32 %.034
}